target datalayout = "e-m:e-p270:32:32-p271:32:32-p272:64:64-i64:64-i128:128-f80:128-n8:16:32:64-S128"
target triple = "x86_64-unknown-linux-gnu"

%"class.cvc5::internal::proof::LfscPrintChannelOut" = type { %"class.cvc5::internal::proof::LfscPrintChannel", ptr }
%"class.cvc5::internal::proof::LfscPrintChannel" = type { ptr }

@.str.5 = private unnamed_addr constant [2 x i8] c")\00", align 1

; Function Attrs: mustprogress uwtable
define hidden void @_ZN4cvc58internal5proof19LfscPrintChannelOut14printCloseRuleEm(ptr noundef nonnull align 8 dereferenceable(16) %this, i64 noundef %nparen) unnamed_addr #4 align 2 {
entry:
  %this.addr = alloca ptr, align 8
  %nparen.addr = alloca i64, align 8
  %i = alloca i64, align 8
  store ptr %this, ptr %this.addr, align 8
  store i64 %nparen, ptr %nparen.addr, align 8
  %this1 = load ptr, ptr %this.addr, align 8
  store i64 0, ptr %i, align 8
  br label %for.cond

for.cond:                                         ; preds = %for.inc, %entry
  %0 = load i64, ptr %i, align 8
  %1 = load i64, ptr %nparen.addr, align 8
  %cmp = icmp ult i64 %0, %1
  br i1 %cmp, label %for.body, label %for.end

for.body:                                         ; preds = %for.cond
  %d_out = getelementptr inbounds %"class.cvc5::internal::proof::LfscPrintChannelOut", ptr %this1, i32 0, i32 1
  %2 = load ptr, ptr %d_out, align 8
  %call = call noundef nonnull align 8 dereferenceable(8) ptr @_ZStlsISt11char_traitsIcEERSt13basic_ostreamIcT_ES5_PKc(ptr noundef nonnull align 8 dereferenceable(8) %2, ptr noundef @.str.5)
  br label %for.inc

for.inc:                                          ; preds = %for.body
  %3 = load i64, ptr %i, align 8
  %inc = add i64 %3, 1
  store i64 %inc, ptr %i, align 8
  br label %for.cond, !llvm.loop !4

for.end:                                          ; preds = %for.cond
  ret void
}