; Function Attrs: mustprogress uwtable
define hidden void @_ZN4cvc58internal5proof19LfscPrintChannelOut14printCloseRuleEm(ptr nocapture noundef nonnull readonly align 8 dereferenceable(16) %this, i64 noundef %nparen) unnamed_addr #4 align 2 {
entry:
  %cmp2.not = icmp eq i64 %nparen, 0
  br i1 %cmp2.not, label %for.end, label %for.body.lr.ph

for.body.lr.ph:                                   ; preds = %entry
  %d_out = getelementptr inbounds i8, ptr %this, i64 8
  br label %for.body

for.body:                                         ; preds = %for.body.lr.ph, %for.body
  %i.03 = phi i64 [ 0, %for.body.lr.ph ], [ %inc, %for.body ]
  %0 = load ptr, ptr %d_out, align 8
  %call = tail call noundef nonnull align 8 dereferenceable(8) ptr @_ZStlsISt11char_traitsIcEERSt13basic_ostreamIcT_ES5_PKc(ptr noundef nonnull align 8 dereferenceable(8) %0, ptr noundef nonnull @.str.5)
  %inc = add nuw i64 %i.03, 1
  %exitcond.not = icmp eq i64 %inc, %nparen
  br i1 %exitcond.not, label %for.end, label %for.body, !llvm.loop !6

for.end:                                          ; preds = %for.body, %entry
  ret void
}